; Function Attrs: mustprogress uwtable
define noundef i32 @_ZN6icu_7717CollationIterator14handleNextCE32ERiR10UErrorCode(ptr noundef nonnull align 8 dereferenceable(389) %0, ptr noundef nonnull writeonly align 4 captures(none) dereferenceable(4) initializes((0, 4)) %1, ptr noundef nonnull align 4 dereferenceable(4) %2) unnamed_addr #1 align 2 {
  %4 = load ptr, ptr %0, align 8, !tbaa !24
  %5 = getelementptr inbounds nuw i8, ptr %4, i64 48
  %6 = load ptr, ptr %5, align 8
  %7 = tail call noundef i32 %6(ptr noundef nonnull align 8 dereferenceable(389) %0, ptr noundef nonnull align 4 dereferenceable(4) %2)
  store i32 %7, ptr %1, align 4, !tbaa !12
  %8 = icmp slt i32 %7, 0
  br i1 %8, label %71, label %9

9:                                                ; preds = %3
  %10 = getelementptr inbounds nuw i8, ptr %0, i64 16
  %11 = load ptr, ptr %10, align 8, !tbaa !32
  %12 = load ptr, ptr %11, align 8, !tbaa !58
  %13 = getelementptr inbounds nuw i8, ptr %12, i64 16
  %14 = load ptr, ptr %13, align 8, !tbaa !59
  %15 = icmp samesign ult i32 %7, 55296
  br i1 %15, label %16, label %26

16:                                               ; preds = %9
  %17 = load ptr, ptr %12, align 8, !tbaa !63
  %18 = lshr i32 %7, 5
  %19 = zext nneg i32 %18 to i64
  %20 = getelementptr inbounds nuw i16, ptr %17, i64 %19
  %21 = load i16, ptr %20, align 2, !tbaa !64
  %22 = zext i16 %21 to i32
  %23 = shl nuw nsw i32 %22, 2
  %24 = and i32 %7, 31
  %25 = add nuw nsw i32 %23, %24
  br label %_ZNK6icu_7713CollationData7getCE32Ei.exit

26:                                               ; preds = %9
  %27 = icmp samesign ult i32 %7, 65536
  br i1 %27, label %28, label %41

28:                                               ; preds = %26
  %29 = load ptr, ptr %12, align 8, !tbaa !63
  %30 = icmp samesign ult i32 %7, 56320
  %31 = select i1 %30, i32 320, i32 0
  %32 = lshr i32 %7, 5
  %33 = add nuw nsw i32 %31, %32
  %34 = zext nneg i32 %33 to i64
  %35 = getelementptr inbounds nuw i16, ptr %29, i64 %34
  %36 = load i16, ptr %35, align 2, !tbaa !64
  %37 = zext i16 %36 to i32
  %38 = shl nuw nsw i32 %37, 2
  %39 = and i32 %7, 31
  %40 = add nuw nsw i32 %38, %39
  br label %_ZNK6icu_7713CollationData7getCE32Ei.exit

41:                                               ; preds = %26
  %42 = icmp samesign ugt i32 %7, 1114111
  br i1 %42, label %_ZNK6icu_7713CollationData7getCE32Ei.exit, label %43

43:                                               ; preds = %41
  %44 = getelementptr inbounds nuw i8, ptr %12, i64 44
  %45 = load i32, ptr %44, align 4, !tbaa !65
  %.not.i = icmp slt i32 %7, %45
  br i1 %.not.i, label %49, label %46

46:                                               ; preds = %43
  %47 = getelementptr inbounds nuw i8, ptr %12, i64 48
  %48 = load i32, ptr %47, align 8, !tbaa !66
  br label %_ZNK6icu_7713CollationData7getCE32Ei.exit

49:                                               ; preds = %43
  %50 = load ptr, ptr %12, align 8, !tbaa !63
  %51 = lshr i32 %7, 11
  %52 = zext nneg i32 %51 to i64
  %53 = getelementptr inbounds nuw i16, ptr %50, i64 %52
  %54 = getelementptr inbounds nuw i8, ptr %53, i64 4160
  %55 = load i16, ptr %54, align 2, !tbaa !64
  %56 = zext i16 %55 to i32
  %57 = lshr i32 %7, 5
  %58 = and i32 %57, 63
  %59 = add nuw nsw i32 %58, %56
  %60 = zext nneg i32 %59 to i64
  %61 = getelementptr inbounds nuw i16, ptr %50, i64 %60
  %62 = load i16, ptr %61, align 2, !tbaa !64
  %63 = zext i16 %62 to i32
  %64 = shl nuw nsw i32 %63, 2
  %65 = and i32 %7, 31
  %66 = add nuw nsw i32 %64, %65
  br label %_ZNK6icu_7713CollationData7getCE32Ei.exit

_ZNK6icu_7713CollationData7getCE32Ei.exit:        ; preds = %16, %28, %41, %46, %49
  %67 = phi i32 [ %25, %16 ], [ %40, %28 ], [ 128, %41 ], [ %48, %46 ], [ %66, %49 ]
  %68 = sext i32 %67 to i64
  %69 = getelementptr inbounds i32, ptr %14, i64 %68
  %70 = load i32, ptr %69, align 4, !tbaa !12
  br label %71

71:                                               ; preds = %3, %_ZNK6icu_7713CollationData7getCE32Ei.exit
  %72 = phi i32 [ %70, %_ZNK6icu_7713CollationData7getCE32Ei.exit ], [ 192, %3 ]
  ret i32 %72
}